target datalayout = "e-m:e-p270:32:32-p271:32:32-p272:64:64-i64:64-i128:128-f80:128-n8:16:32:64-S128"
target triple = "x86_64-pc-linux-gnu"

%class.QFlags = type { i32 }
%class.QFontMetrics = type { %class.QExplicitlySharedDataPointer }
%class.QExplicitlySharedDataPointer = type { ptr }
%class.ElidedLabel = type { %class.QLabel, i8, %class.QString, %class.QString }
%class.QLabel = type { %class.QFrame }
%class.QFrame = type { %class.QWidget }
%class.QWidget = type { %class.QObject, %class.QPaintDevice.base, ptr }
%class.QObject = type { ptr, %class.QScopedPointer }
%class.QScopedPointer = type { ptr }
%class.QPaintDevice.base = type <{ ptr, i16 }>
%class.QString = type { %struct.QArrayDataPointer }
%struct.QArrayDataPointer = type { ptr, ptr, i64 }
%class.QWidgetData = type { i64, i32, %class.QFlags, i32, %class.QRect, [4 x i8], %class.QPalette, %class.QFont, %class.QRect }
%class.QPalette = type <{ ptr, i32, [4 x i8] }>
%class.QFont = type <{ %class.QExplicitlySharedDataPointer, i32, [4 x i8] }>
%class.QRect = type { i32, i32, i32, i32 }

@_ZTV11ElidedLabel = external unnamed_addr constant { [55 x ptr], [10 x ptr] }, align 8

; Function Attrs: mustprogress nounwind null_pointer_is_valid sspstrong uwtable
define linkonce_odr void @_ZN17QArrayDataPointerIDsEC2Ev(ptr noundef align 8 dereferenceable_or_null(24) %0) unnamed_addr #7 comdat align 2 {
  %2 = alloca ptr, align 8
  store ptr %0, ptr %2, align 8
  %3 = load ptr, ptr %2, align 8
  %4 = getelementptr inbounds nuw %struct.QArrayDataPointer, ptr %3, i32 0, i32 0
  store ptr null, ptr %4, align 8
  %5 = getelementptr inbounds nuw %struct.QArrayDataPointer, ptr %3, i32 0, i32 1
  store ptr null, ptr %5, align 8
  %6 = getelementptr inbounds nuw %struct.QArrayDataPointer, ptr %3, i32 0, i32 2
  store i64 0, ptr %6, align 8
  ret void
}

; Function Attrs: inlinehint mustprogress nounwind null_pointer_is_valid sspstrong uwtable
define linkonce_odr noundef align 8 dereferenceable(12) ptr @_ZNK7QWidget4fontEv(ptr noundef align 8 dereferenceable_or_null(40) %0) #1 comdat align 2 {
  %2 = alloca ptr, align 8
  store ptr %0, ptr %2, align 8
  %3 = load ptr, ptr %2, align 8
  %4 = getelementptr inbounds nuw %class.QWidget, ptr %3, i32 0, i32 2
  %5 = load ptr, ptr %4, align 8
  %6 = getelementptr inbounds nuw %class.QWidgetData, ptr %5, i32 0, i32 7
  ret ptr %6
}

; Function Attrs: inlinehint mustprogress nounwind null_pointer_is_valid sspstrong uwtable
define linkonce_odr void @_ZN7QStringC2Ev(ptr noundef align 8 dereferenceable_or_null(24) %0) unnamed_addr #1 comdat align 2 {
  %2 = alloca ptr, align 8
  store ptr %0, ptr %2, align 8
  %3 = load ptr, ptr %2, align 8
  %4 = getelementptr inbounds nuw %class.QString, ptr %3, i32 0, i32 0
  call void @_ZN17QArrayDataPointerIDsEC2Ev(ptr noundef align 8 dereferenceable_or_null(24) %4) #11
  ret void
}

; Function Attrs: inlinehint mustprogress nounwind null_pointer_is_valid sspstrong uwtable
define linkonce_odr void @_ZN6QFlagsIN2Qt10WindowTypeEEC2Ev(ptr noundef align 4 dereferenceable_or_null(4) %0) unnamed_addr #1 comdat align 2 {
  %2 = alloca ptr, align 8
  store ptr %0, ptr %2, align 8
  %3 = load ptr, ptr %2, align 8
  %4 = getelementptr inbounds nuw %class.QFlags, ptr %3, i32 0, i32 0
  store i32 0, ptr %4, align 4
  ret void
}

; Function Attrs: mustprogress null_pointer_is_valid sspstrong uwtable
define void @_ZN11ElidedLabelC2EP7QWidget(ptr noundef align 8 dereferenceable_or_null(96) %0, ptr noundef %1) unnamed_addr #0 align 2 personality ptr @__gxx_personality_v0 {
  %3 = alloca ptr, align 8
  %4 = alloca ptr, align 8
  %5 = alloca %class.QFlags, align 4
  %6 = alloca %class.QFontMetrics, align 8
  %7 = alloca ptr, align 8
  %8 = alloca i32, align 4
  store ptr %0, ptr %3, align 8
  store ptr %1, ptr %4, align 8
  %9 = load ptr, ptr %3, align 8
  %10 = load ptr, ptr %4, align 8
  call void @_ZN6QFlagsIN2Qt10WindowTypeEEC2Ev(ptr noundef align 4 dereferenceable_or_null(4) %5) #11
  %11 = getelementptr inbounds nuw %class.QFlags, ptr %5, i32 0, i32 0
  %12 = load i32, ptr %11, align 4
  call void @_ZN6QLabelC2EP7QWidget6QFlagsIN2Qt10WindowTypeEE(ptr noundef align 8 dereferenceable_or_null(40) %9, ptr noundef %10, i32 %12)
  store ptr getelementptr inbounds inrange(-16, 424) ({ [55 x ptr], [10 x ptr] }, ptr @_ZTV11ElidedLabel, i32 0, i32 0, i32 2), ptr %9, align 8
  %13 = getelementptr inbounds i8, ptr %9, i64 16
  store ptr getelementptr inbounds inrange(-16, 64) ({ [55 x ptr], [10 x ptr] }, ptr @_ZTV11ElidedLabel, i32 0, i32 1, i32 2), ptr %13, align 8
  %14 = getelementptr inbounds nuw %class.ElidedLabel, ptr %9, i32 0, i32 1
  store i8 0, ptr %14, align 8
  %15 = getelementptr inbounds nuw %class.ElidedLabel, ptr %9, i32 0, i32 2
  call void @_ZN7QStringC2Ev(ptr noundef align 8 dereferenceable_or_null(24) %15) #11
  %16 = getelementptr inbounds nuw %class.ElidedLabel, ptr %9, i32 0, i32 3
  call void @_ZN7QStringC2Ev(ptr noundef align 8 dereferenceable_or_null(24) %16) #11
  call void @llvm.lifetime.start.p0(i64 8, ptr %6) #11
  %17 = invoke noundef align 8 dereferenceable(12) ptr @_ZNK7QWidget4fontEv(ptr noundef align 8 dereferenceable_or_null(40) %9)
          to label %18 unwind label %24

18:                                               ; preds = %2
  invoke void @_ZN12QFontMetricsC1ERK5QFont(ptr noundef align 8 dereferenceable_or_null(8) %6, ptr noundef align 8 dereferenceable(12) %17)
          to label %19 unwind label %24

19:                                               ; preds = %18
  %20 = invoke noundef i32 @_ZNK12QFontMetrics6heightEv(ptr noundef align 8 dereferenceable_or_null(8) %6)
          to label %21 unwind label %28

21:                                               ; preds = %19
  %22 = mul i32 %20, 5
  invoke void @_ZN7QWidget15setMinimumWidthEi(ptr noundef align 8 dereferenceable_or_null(40) %9, i32 noundef %22)
          to label %23 unwind label %28

23:                                               ; preds = %21
  call void @_ZN12QFontMetricsD1Ev(ptr noundef align 8 dereferenceable_or_null(8) %6) #11
  call void @llvm.lifetime.end.p0(i64 8, ptr %6) #11
  ret void

24:                                               ; preds = %18, %2
  %25 = landingpad { ptr, i32 }
          cleanup
  %26 = extractvalue { ptr, i32 } %25, 0
  store ptr %26, ptr %7, align 8
  %27 = extractvalue { ptr, i32 } %25, 1
  store i32 %27, ptr %8, align 4
  br label %32

28:                                               ; preds = %21, %19
  %29 = landingpad { ptr, i32 }
          cleanup
  %30 = extractvalue { ptr, i32 } %29, 0
  store ptr %30, ptr %7, align 8
  %31 = extractvalue { ptr, i32 } %29, 1
  store i32 %31, ptr %8, align 4
  call void @_ZN12QFontMetricsD1Ev(ptr noundef align 8 dereferenceable_or_null(8) %6) #11
  br label %32

32:                                               ; preds = %28, %24
  call void @llvm.lifetime.end.p0(i64 8, ptr %6) #11
  call void @_ZN7QStringD2Ev(ptr noundef align 8 dereferenceable_or_null(24) %16) #11
  call void @_ZN7QStringD2Ev(ptr noundef align 8 dereferenceable_or_null(24) %15) #11
  call void @_ZN6QLabelD2Ev(ptr noundef align 8 dereferenceable_or_null(40) %9) #11
  br label %33

33:                                               ; preds = %32
  %34 = load ptr, ptr %7, align 8
  %35 = load i32, ptr %8, align 4
  %36 = insertvalue { ptr, i32 } poison, ptr %34, 0
  %37 = insertvalue { ptr, i32 } %36, i32 %35, 1
  resume { ptr, i32 } %37
}