; Function Attrs: mustprogress null_pointer_is_valid sspstrong uwtable
define void @_ZN11ElidedLabelC2EP7QWidget(ptr noundef align 8 dereferenceable_or_null(96) %0, ptr noundef %1) unnamed_addr #0 align 2 personality ptr @__gxx_personality_v0 {
  %3 = alloca %class.QFontMetrics, align 8
  tail call void @_ZN6QLabelC2EP7QWidget6QFlagsIN2Qt10WindowTypeEE(ptr noundef align 8 dereferenceable_or_null(40) %0, ptr noundef %1, i32 0)
  store ptr getelementptr inbounds nuw inrange(-16, 424) (i8, ptr @_ZTV11ElidedLabel, i64 16), ptr %0, align 8
  %4 = getelementptr inbounds nuw i8, ptr %0, i64 16
  store ptr getelementptr inbounds nuw inrange(-16, 64) (i8, ptr @_ZTV11ElidedLabel, i64 456), ptr %4, align 8
  %5 = getelementptr inbounds nuw i8, ptr %0, i64 40
  store i8 0, ptr %5, align 8
  %6 = getelementptr inbounds nuw i8, ptr %0, i64 48
  tail call void @llvm.memset.p0.i64(ptr noundef nonnull align 8 dereferenceable(48) %6, i8 0, i64 48, i1 false)
  call void @llvm.lifetime.start.p0(i64 8, ptr nonnull %3) #7
  %7 = getelementptr inbounds nuw i8, ptr %0, i64 32
  %8 = load ptr, ptr %7, align 8
  %9 = getelementptr inbounds nuw i8, ptr %8, i64 56
  invoke void @_ZN12QFontMetricsC1ERK5QFont(ptr noundef nonnull align 8 dereferenceable_or_null(8) %3, ptr noundef nonnull align 8 dereferenceable(12) %9)
          to label %10 unwind label %15

10:                                               ; preds = %2
  %11 = invoke noundef i32 @_ZNK12QFontMetrics6heightEv(ptr noundef nonnull align 8 dereferenceable_or_null(8) %3)
          to label %12 unwind label %17

12:                                               ; preds = %10
  %13 = mul i32 %11, 5
  invoke void @_ZN7QWidget15setMinimumWidthEi(ptr noundef align 8 dereferenceable_or_null(40) %0, i32 noundef %13)
          to label %14 unwind label %17

14:                                               ; preds = %12
  call void @_ZN12QFontMetricsD1Ev(ptr noundef nonnull align 8 dereferenceable_or_null(8) %3) #7
  call void @llvm.lifetime.end.p0(i64 8, ptr nonnull %3) #7
  ret void

15:                                               ; preds = %2
  %16 = landingpad { ptr, i32 }
          cleanup
  br label %19

17:                                               ; preds = %12, %10
  %18 = landingpad { ptr, i32 }
          cleanup
  call void @_ZN12QFontMetricsD1Ev(ptr noundef nonnull align 8 dereferenceable_or_null(8) %3) #7
  br label %19

19:                                               ; preds = %17, %15
  %.pn = phi { ptr, i32 } [ %18, %17 ], [ %16, %15 ]
  %20 = getelementptr inbounds nuw i8, ptr %0, i64 72
  call void @llvm.lifetime.end.p0(i64 8, ptr nonnull %3) #7
  call void @_ZN7QStringD2Ev(ptr noundef nonnull align 8 dereferenceable_or_null(24) %20) #7
  call void @_ZN7QStringD2Ev(ptr noundef nonnull align 8 dereferenceable_or_null(24) %6) #7
  call void @_ZN6QLabelD2Ev(ptr noundef align 8 dereferenceable_or_null(40) %0) #7
  resume { ptr, i32 } %.pn
}